target datalayout = "e-m:e-p270:32:32-p271:32:32-p272:64:64-i64:64-i128:128-f80:128-n8:16:32:64-S128"
target triple = "x86_64-pc-linux-gnu"

%"class.icu_77::UObject" = type { ptr }
%"class.icu_77::StringTrieBuilder::Node" = type { %"class.icu_77::UObject", i32, i32 }
%"class.icu_77::StringTrieBuilder::ListBranchNode" = type <{ %"class.icu_77::StringTrieBuilder::BranchNode.base", [4 x i8], [5 x ptr], i32, [5 x i32], [5 x i16], [6 x i8] }>
%"class.icu_77::StringTrieBuilder::BranchNode.base" = type <{ %"class.icu_77::StringTrieBuilder::Node", i32 }>
%"class.std::type_info" = type { ptr, ptr }

; Function Attrs: mustprogress nounwind uwtable
define linkonce_odr noundef ptr @_ZNKSt9type_info4nameEv(ptr noundef nonnull align 8 dereferenceable(16) %0) #0 comdat align 2 {
  %2 = alloca ptr, align 8
  store ptr %0, ptr %2, align 8, !tbaa !72
  %3 = load ptr, ptr %2, align 8
  %4 = getelementptr inbounds nuw %"class.std::type_info", ptr %3, i32 0, i32 1
  %5 = load ptr, ptr %4, align 8, !tbaa !74
  %6 = getelementptr inbounds i8, ptr %5, i64 0
  %7 = load i8, ptr %6, align 1, !tbaa !21
  %8 = sext i8 %7 to i32
  %9 = icmp eq i32 %8, 42
  br i1 %9, label %10, label %14

10:                                               ; preds = %1
  %11 = getelementptr inbounds nuw %"class.std::type_info", ptr %3, i32 0, i32 1
  %12 = load ptr, ptr %11, align 8, !tbaa !74
  %13 = getelementptr inbounds i8, ptr %12, i64 1
  br label %17

14:                                               ; preds = %1
  %15 = getelementptr inbounds nuw %"class.std::type_info", ptr %3, i32 0, i32 1
  %16 = load ptr, ptr %15, align 8, !tbaa !74
  br label %17

17:                                               ; preds = %14, %10
  %18 = phi ptr [ %13, %10 ], [ %16, %14 ]
  ret ptr %18
}

; Function Attrs: inlinehint mustprogress nounwind uwtable
define linkonce_odr noundef zeroext i1 @_ZNKSt9type_infoeqERKS_(ptr noundef nonnull align 8 dereferenceable(16) %0, ptr noundef nonnull align 8 dereferenceable(16) %1) #1 comdat align 2 {
  %3 = alloca i1, align 1
  %4 = alloca ptr, align 8
  %5 = alloca ptr, align 8
  store ptr %0, ptr %4, align 8, !tbaa !72
  store ptr %1, ptr %5, align 8, !tbaa !72
  %6 = load ptr, ptr %4, align 8
  %7 = getelementptr inbounds nuw %"class.std::type_info", ptr %6, i32 0, i32 1
  %8 = load ptr, ptr %7, align 8, !tbaa !74
  %9 = load ptr, ptr %5, align 8, !tbaa !72
  %10 = getelementptr inbounds nuw %"class.std::type_info", ptr %9, i32 0, i32 1
  %11 = load ptr, ptr %10, align 8, !tbaa !74
  %12 = icmp eq ptr %8, %11
  br i1 %12, label %13, label %14

13:                                               ; preds = %2
  store i1 true, ptr %3, align 1
  br label %30

14:                                               ; preds = %2
  %15 = getelementptr inbounds nuw %"class.std::type_info", ptr %6, i32 0, i32 1
  %16 = load ptr, ptr %15, align 8, !tbaa !74
  %17 = getelementptr inbounds i8, ptr %16, i64 0
  %18 = load i8, ptr %17, align 1, !tbaa !21
  %19 = sext i8 %18 to i32
  %20 = icmp ne i32 %19, 42
  br i1 %20, label %21, label %28

21:                                               ; preds = %14
  %22 = getelementptr inbounds nuw %"class.std::type_info", ptr %6, i32 0, i32 1
  %23 = load ptr, ptr %22, align 8, !tbaa !74
  %24 = load ptr, ptr %5, align 8, !tbaa !72
  %25 = call noundef ptr @_ZNKSt9type_info4nameEv(ptr noundef nonnull align 8 dereferenceable(16) %24) #9
  %26 = call i32 @strcmp(ptr noundef %23, ptr noundef %25) #9
  %27 = icmp eq i32 %26, 0
  br label %28

28:                                               ; preds = %21, %14
  %29 = phi i1 [ false, %14 ], [ %27, %21 ]
  store i1 %29, ptr %3, align 1
  br label %30

30:                                               ; preds = %28, %13
  %31 = load i1, ptr %3, align 1
  ret i1 %31
}

; Function Attrs: mustprogress uwtable
define noundef zeroext i1 @_ZNK6icu_7717StringTrieBuilder4NodeeqERKS1_(ptr noundef nonnull align 8 dereferenceable(16) %0, ptr noundef nonnull align 8 dereferenceable(16) %1) unnamed_addr #2 align 2 {
  %3 = alloca ptr, align 8
  %4 = alloca ptr, align 8
  store ptr %0, ptr %3, align 8, !tbaa !24
  store ptr %1, ptr %4, align 8, !tbaa !24
  %5 = load ptr, ptr %3, align 8
  %6 = load ptr, ptr %4, align 8, !tbaa !24
  %7 = icmp eq ptr %5, %6
  br i1 %7, label %29, label %8

8:                                                ; preds = %2
  %9 = icmp eq ptr %5, null
  br i1 %9, label %10, label %11

10:                                               ; preds = %8
  call void @__cxa_bad_typeid() #11
  unreachable

11:                                               ; preds = %8
  %12 = load ptr, ptr %5, align 8, !tbaa !8
  %13 = getelementptr inbounds ptr, ptr %12, i64 -1
  %14 = load ptr, ptr %13, align 8
  %15 = load ptr, ptr %4, align 8, !tbaa !24
  %16 = load ptr, ptr %15, align 8, !tbaa !8
  %17 = getelementptr inbounds ptr, ptr %16, i64 -1
  %18 = load ptr, ptr %17, align 8
  %19 = call noundef zeroext i1 @_ZNKSt9type_infoeqERKS_(ptr noundef nonnull align 8 dereferenceable(16) %14, ptr noundef nonnull align 8 dereferenceable(16) %18) #9
  br i1 %19, label %20, label %27

20:                                               ; preds = %11
  %21 = getelementptr inbounds nuw %"class.icu_77::StringTrieBuilder::Node", ptr %5, i32 0, i32 1
  %22 = load i32, ptr %21, align 8, !tbaa !54
  %23 = load ptr, ptr %4, align 8, !tbaa !24
  %24 = getelementptr inbounds nuw %"class.icu_77::StringTrieBuilder::Node", ptr %23, i32 0, i32 1
  %25 = load i32, ptr %24, align 8, !tbaa !54
  %26 = icmp eq i32 %22, %25
  br label %27

27:                                               ; preds = %20, %11
  %28 = phi i1 [ false, %11 ], [ %26, %20 ]
  br label %29

29:                                               ; preds = %27, %2
  %30 = phi i1 [ true, %2 ], [ %28, %27 ]
  ret i1 %30
}

; Function Attrs: mustprogress uwtable
define noundef zeroext i1 @_ZNK6icu_7717StringTrieBuilder14ListBranchNodeeqERKNS0_4NodeE(ptr noundef nonnull align 8 dereferenceable(98) %0, ptr noundef nonnull align 8 dereferenceable(16) %1) unnamed_addr #2 align 2 {
  %3 = alloca i1, align 1
  %4 = alloca ptr, align 8
  %5 = alloca ptr, align 8
  %6 = alloca ptr, align 8
  %7 = alloca i32, align 4
  %8 = alloca i32, align 4
  store ptr %0, ptr %4, align 8, !tbaa !39
  store ptr %1, ptr %5, align 8, !tbaa !24
  %9 = load ptr, ptr %4, align 8
  %10 = load ptr, ptr %5, align 8, !tbaa !24
  %11 = icmp eq ptr %9, %10
  br i1 %11, label %12, label %13

12:                                               ; preds = %2
  store i1 true, ptr %3, align 1
  br label %75

13:                                               ; preds = %2
  %14 = load ptr, ptr %5, align 8, !tbaa !24
  %15 = call noundef zeroext i1 @_ZNK6icu_7717StringTrieBuilder4NodeeqERKS1_(ptr noundef nonnull align 8 dereferenceable(16) %9, ptr noundef nonnull align 8 dereferenceable(16) %14)
  br i1 %15, label %17, label %16

16:                                               ; preds = %13
  store i1 false, ptr %3, align 1
  br label %75

17:                                               ; preds = %13
  call void @llvm.lifetime.start.p0(i64 8, ptr %6) #9
  %18 = load ptr, ptr %5, align 8, !tbaa !24
  store ptr %18, ptr %6, align 8, !tbaa !39
  call void @llvm.lifetime.start.p0(i64 4, ptr %7) #9
  store i32 0, ptr %7, align 4, !tbaa !16
  br label %19

19:                                               ; preds = %68, %17
  %20 = load i32, ptr %7, align 4, !tbaa !16
  %21 = getelementptr inbounds nuw %"class.icu_77::StringTrieBuilder::ListBranchNode", ptr %9, i32 0, i32 3
  %22 = load i32, ptr %21, align 8, !tbaa !59
  %23 = icmp slt i32 %20, %22
  br i1 %23, label %25, label %24

24:                                               ; preds = %19
  store i32 2, ptr %8, align 4
  br label %71

25:                                               ; preds = %19
  %26 = getelementptr inbounds nuw %"class.icu_77::StringTrieBuilder::ListBranchNode", ptr %9, i32 0, i32 5
  %27 = load i32, ptr %7, align 4, !tbaa !16
  %28 = sext i32 %27 to i64
  %29 = getelementptr inbounds [5 x i16], ptr %26, i64 0, i64 %28
  %30 = load i16, ptr %29, align 2, !tbaa !29
  %31 = zext i16 %30 to i32
  %32 = load ptr, ptr %6, align 8, !tbaa !39
  %33 = getelementptr inbounds nuw %"class.icu_77::StringTrieBuilder::ListBranchNode", ptr %32, i32 0, i32 5
  %34 = load i32, ptr %7, align 4, !tbaa !16
  %35 = sext i32 %34 to i64
  %36 = getelementptr inbounds [5 x i16], ptr %33, i64 0, i64 %35
  %37 = load i16, ptr %36, align 2, !tbaa !29
  %38 = zext i16 %37 to i32
  %39 = icmp ne i32 %31, %38
  br i1 %39, label %66, label %40

40:                                               ; preds = %25
  %41 = getelementptr inbounds nuw %"class.icu_77::StringTrieBuilder::ListBranchNode", ptr %9, i32 0, i32 4
  %42 = load i32, ptr %7, align 4, !tbaa !16
  %43 = sext i32 %42 to i64
  %44 = getelementptr inbounds [5 x i32], ptr %41, i64 0, i64 %43
  %45 = load i32, ptr %44, align 4, !tbaa !16
  %46 = load ptr, ptr %6, align 8, !tbaa !39
  %47 = getelementptr inbounds nuw %"class.icu_77::StringTrieBuilder::ListBranchNode", ptr %46, i32 0, i32 4
  %48 = load i32, ptr %7, align 4, !tbaa !16
  %49 = sext i32 %48 to i64
  %50 = getelementptr inbounds [5 x i32], ptr %47, i64 0, i64 %49
  %51 = load i32, ptr %50, align 4, !tbaa !16
  %52 = icmp ne i32 %45, %51
  br i1 %52, label %66, label %53

53:                                               ; preds = %40
  %54 = getelementptr inbounds nuw %"class.icu_77::StringTrieBuilder::ListBranchNode", ptr %9, i32 0, i32 2
  %55 = load i32, ptr %7, align 4, !tbaa !16
  %56 = sext i32 %55 to i64
  %57 = getelementptr inbounds [5 x ptr], ptr %54, i64 0, i64 %56
  %58 = load ptr, ptr %57, align 8, !tbaa !24
  %59 = load ptr, ptr %6, align 8, !tbaa !39
  %60 = getelementptr inbounds nuw %"class.icu_77::StringTrieBuilder::ListBranchNode", ptr %59, i32 0, i32 2
  %61 = load i32, ptr %7, align 4, !tbaa !16
  %62 = sext i32 %61 to i64
  %63 = getelementptr inbounds [5 x ptr], ptr %60, i64 0, i64 %62
  %64 = load ptr, ptr %63, align 8, !tbaa !24
  %65 = icmp ne ptr %58, %64
  br i1 %65, label %66, label %67

66:                                               ; preds = %53, %40, %25
  store i1 false, ptr %3, align 1
  store i32 1, ptr %8, align 4
  br label %71

67:                                               ; preds = %53
  br label %68

68:                                               ; preds = %67
  %69 = load i32, ptr %7, align 4, !tbaa !16
  %70 = add nsw i32 %69, 1
  store i32 %70, ptr %7, align 4, !tbaa !16
  br label %19, !llvm.loop !83

71:                                               ; preds = %66, %24
  call void @llvm.lifetime.end.p0(i64 4, ptr %7) #9
  %72 = load i32, ptr %8, align 4
  switch i32 %72, label %74 [
    i32 2, label %73
  ]

73:                                               ; preds = %71
  store i1 true, ptr %3, align 1
  store i32 1, ptr %8, align 4
  br label %74

74:                                               ; preds = %73, %71
  call void @llvm.lifetime.end.p0(i64 8, ptr %6) #9
  br label %75

75:                                               ; preds = %74, %16, %12
  %76 = load i1, ptr %3, align 1
  ret i1 %76
}