; Function Attrs: mustprogress nofree nounwind willreturn memory(read, inaccessiblemem: none) uwtable
define noundef zeroext i1 @_ZNK6icu_7717StringTrieBuilder14ListBranchNodeeqERKNS0_4NodeE(ptr noundef nonnull readonly align 8 dereferenceable(98) %0, ptr noundef nonnull readonly align 8 dereferenceable(16) %1) unnamed_addr #11 align 2 {
  %3 = icmp eq ptr %0, %1
  br i1 %3, label %.critedge, label %4

4:                                                ; preds = %2
  %5 = load ptr, ptr %0, align 8, !tbaa !3
  %6 = getelementptr inbounds i8, ptr %5, i64 -8
  %7 = load ptr, ptr %6, align 8
  %8 = load ptr, ptr %1, align 8, !tbaa !3
  %9 = getelementptr inbounds i8, ptr %8, i64 -8
  %10 = load ptr, ptr %9, align 8
  %11 = getelementptr inbounds nuw i8, ptr %7, i64 8
  %12 = load ptr, ptr %11, align 8, !tbaa !52
  %13 = getelementptr inbounds nuw i8, ptr %10, i64 8
  %14 = load ptr, ptr %13, align 8, !tbaa !52
  %15 = icmp eq ptr %12, %14
  br i1 %15, label %_ZNK6icu_7717StringTrieBuilder4NodeeqERKS1_.exit, label %16

16:                                               ; preds = %4
  %17 = load i8, ptr %12, align 1, !tbaa !19
  %.not.i.i = icmp eq i8 %17, 42
  br i1 %.not.i.i, label %.critedge, label %_ZNKSt9type_infoeqERKS_.exit.i

_ZNKSt9type_infoeqERKS_.exit.i:                   ; preds = %16
  %18 = load i8, ptr %14, align 1, !tbaa !19
  %19 = icmp eq i8 %18, 42
  %.idx.i.i.i = zext i1 %19 to i64
  %20 = getelementptr inbounds nuw i8, ptr %14, i64 %.idx.i.i.i
  %21 = tail call i32 @strcmp(ptr noundef nonnull dereferenceable(1) %12, ptr noundef nonnull dereferenceable(1) %20) #16
  %22 = icmp eq i32 %21, 0
  br i1 %22, label %_ZNK6icu_7717StringTrieBuilder4NodeeqERKS1_.exit, label %.critedge

_ZNK6icu_7717StringTrieBuilder4NodeeqERKS1_.exit: ; preds = %4, %_ZNKSt9type_infoeqERKS_.exit.i
  %23 = getelementptr inbounds nuw i8, ptr %0, i64 8
  %24 = load i32, ptr %23, align 8, !tbaa !14
  %25 = getelementptr inbounds nuw i8, ptr %1, i64 8
  %26 = load i32, ptr %25, align 8, !tbaa !14
  %27 = icmp eq i32 %24, %26
  br i1 %27, label %.preheader, label %.critedge

.preheader:                                       ; preds = %_ZNK6icu_7717StringTrieBuilder4NodeeqERKS1_.exit
  %28 = getelementptr inbounds nuw i8, ptr %0, i64 88
  %29 = getelementptr inbounds nuw i8, ptr %0, i64 68
  %30 = getelementptr inbounds nuw i8, ptr %0, i64 24
  %31 = getelementptr inbounds nuw i8, ptr %0, i64 64
  %32 = load i32, ptr %31, align 8, !tbaa !43
  %.not22.not23 = icmp sgt i32 %32, 0
  br i1 %.not22.not23, label %.lr.ph, label %.critedge

.lr.ph:                                           ; preds = %.preheader
  %33 = getelementptr inbounds nuw i8, ptr %1, i64 88
  %34 = getelementptr inbounds nuw i8, ptr %1, i64 68
  %35 = getelementptr inbounds nuw i8, ptr %1, i64 24
  %wide.trip.count = zext nneg i32 %32 to i64
  br label %37

36:                                               ; preds = %47
  %indvars.iv.next = add nuw nsw i64 %indvars.iv, 1
  %exitcond.not = icmp eq i64 %indvars.iv.next, %wide.trip.count
  br i1 %exitcond.not, label %.critedge, label %37, !llvm.loop !58

37:                                               ; preds = %.lr.ph, %36
  %indvars.iv = phi i64 [ 0, %.lr.ph ], [ %indvars.iv.next, %36 ]
  %38 = getelementptr inbounds nuw [5 x i16], ptr %28, i64 0, i64 %indvars.iv
  %39 = load i16, ptr %38, align 2, !tbaa !31
  %40 = getelementptr inbounds nuw [5 x i16], ptr %33, i64 0, i64 %indvars.iv
  %41 = load i16, ptr %40, align 2, !tbaa !31
  %.not = icmp eq i16 %39, %41
  br i1 %.not, label %42, label %.critedge

42:                                               ; preds = %37
  %43 = getelementptr inbounds nuw [5 x i32], ptr %29, i64 0, i64 %indvars.iv
  %44 = load i32, ptr %43, align 4, !tbaa !33
  %45 = getelementptr inbounds nuw [5 x i32], ptr %34, i64 0, i64 %indvars.iv
  %46 = load i32, ptr %45, align 4, !tbaa !33
  %.not20 = icmp eq i32 %44, %46
  br i1 %.not20, label %47, label %.critedge

47:                                               ; preds = %42
  %48 = getelementptr inbounds nuw [5 x ptr], ptr %30, i64 0, i64 %indvars.iv
  %49 = load ptr, ptr %48, align 8, !tbaa !41
  %50 = getelementptr inbounds nuw [5 x ptr], ptr %35, i64 0, i64 %indvars.iv
  %51 = load ptr, ptr %50, align 8, !tbaa !41
  %.not21 = icmp eq ptr %49, %51
  br i1 %.not21, label %36, label %.critedge

.critedge:                                        ; preds = %37, %42, %47, %36, %.preheader, %16, %_ZNKSt9type_infoeqERKS_.exit.i, %_ZNK6icu_7717StringTrieBuilder4NodeeqERKS1_.exit, %2
  %.017 = phi i1 [ true, %2 ], [ false, %_ZNK6icu_7717StringTrieBuilder4NodeeqERKS1_.exit ], [ false, %_ZNKSt9type_infoeqERKS_.exit.i ], [ false, %16 ], [ true, %.preheader ], [ false, %37 ], [ false, %42 ], [ false, %47 ], [ true, %36 ]
  ret i1 %.017
}